; Function Attrs: nounwind sspstrong uwtable
define internal i32 @virtio_pci_sync_config(ptr noundef %0, ptr noundef %1) #0 {
  %3 = tail call ptr @object_dynamic_cast_assert(ptr noundef %0, ptr noundef nonnull @.str, ptr noundef nonnull @.str.15, i32 noundef 107, ptr noundef nonnull @__func__.VIRTIO_PCI) #15
  %4 = getelementptr i8, ptr %3, i64 34160
  %.val = load ptr, ptr %4, align 8
  %.not.i = icmp eq ptr %.val, null
  br i1 %.not.i, label %virtio_bus_get_device.exit, label %5

5:                                                ; preds = %2
  %6 = getelementptr inbounds nuw i8, ptr %.val, i64 16
  %7 = load ptr, ptr %6, align 8
  br label %virtio_bus_get_device.exit

virtio_bus_get_device.exit:                       ; preds = %2, %5
  %8 = phi ptr [ %7, %5 ], [ null, %2 ]
  %9 = tail call ptr @object_dynamic_cast_assert(ptr noundef %8, ptr noundef nonnull @.str.10, ptr noundef nonnull @.str.11, i32 noundef 77, ptr noundef nonnull @__func__.DEVICE) #15
  %10 = tail call i32 @qdev_sync_config(ptr noundef %9, ptr noundef %1) #15
  ret i32 %10
}